target datalayout = "e-m:e-p270:32:32-p271:32:32-p272:64:64-i64:64-i128:128-f80:128-n8:16:32:64-S128"
target triple = "x86_64-pc-linux-gnu"

%struct._php_stream_xport_param = type { i32, i8, %struct.anon.8, %struct.anon.9 }
%struct.anon.8 = type { ptr, i64, ptr, ptr, ptr, i64, i32, i32, i32 }
%struct.anon.9 = type { ptr, ptr, i32, ptr, ptr, i32, i32 }

; Function Attrs: nounwind uwtable
define i32 @php_stream_xport_shutdown(ptr noundef %0, i32 noundef %1) #0 {
  %3 = alloca i32, align 4
  %4 = alloca ptr, align 8
  %5 = alloca i32, align 4
  %6 = alloca %struct._php_stream_xport_param, align 8
  %7 = alloca i32, align 4
  store ptr %0, ptr %4, align 8
  store i32 %1, ptr %5, align 4
  store i32 0, ptr %7, align 4
  call void @llvm.memset.p0.i64(ptr align 8 %6, i8 0, i64 120, i1 false)
  %8 = getelementptr inbounds %struct._php_stream_xport_param, ptr %6, i32 0, i32 0
  store i32 9, ptr %8, align 8
  %9 = load i32, ptr %5, align 4
  %10 = getelementptr inbounds %struct._php_stream_xport_param, ptr %6, i32 0, i32 1
  %11 = trunc i32 %9 to i8
  %12 = load i8, ptr %10, align 4
  %13 = and i8 %11, 3
  %14 = shl i8 %13, 3
  %15 = and i8 %12, -25
  %16 = or i8 %15, %14
  store i8 %16, ptr %10, align 4
  %17 = load ptr, ptr %4, align 8
  %18 = call i32 @_php_stream_set_option(ptr noundef %17, i32 noundef 7, i32 noundef 0, ptr noundef %6)
  store i32 %18, ptr %7, align 4
  %19 = load i32, ptr %7, align 4
  %20 = icmp eq i32 %19, 0
  br i1 %20, label %21, label %25

21:                                               ; preds = %2
  %22 = getelementptr inbounds %struct._php_stream_xport_param, ptr %6, i32 0, i32 3
  %23 = getelementptr inbounds %struct.anon.9, ptr %22, i32 0, i32 5
  %24 = load i32, ptr %23, align 8
  store i32 %24, ptr %3, align 4
  br label %26

25:                                               ; preds = %2
  store i32 -1, ptr %3, align 4
  br label %26

26:                                               ; preds = %25, %21
  %27 = load i32, ptr %3, align 4
  ret i32 %27
}