; Function Attrs: nounwind uwtable
define i32 @php_stream_xport_shutdown(ptr noundef %0, i32 noundef %1) local_unnamed_addr #1 {
  %3 = alloca %struct._php_stream_xport_param, align 8
  call void @llvm.memset.p0.i64(ptr noundef nonnull align 8 dereferenceable(120) %3, i8 0, i64 120, i1 false)
  store i32 9, ptr %3, align 8
  %4 = getelementptr inbounds i8, ptr %3, i64 4
  %5 = trunc i32 %1 to i8
  %6 = shl i8 %5, 3
  %7 = and i8 %6, 24
  store i8 %7, ptr %4, align 4
  %8 = call i32 @_php_stream_set_option(ptr noundef %0, i32 noundef 7, i32 noundef 0, ptr noundef nonnull %3) #14
  %9 = icmp eq i32 %8, 0
  %10 = getelementptr inbounds i8, ptr %3, i64 112
  %11 = load i32, ptr %10, align 8
  %.0 = select i1 %9, i32 %11, i32 -1
  ret i32 %.0
}